target datalayout = "e-m:e-p270:32:32-p271:32:32-p272:64:64-i64:64-i128:128-f80:128-n8:16:32:64-S128"
target triple = "x86_64-pc-linux-gnu"

%struct.AVFilterContext = type { ptr, ptr, ptr, ptr, ptr, i32, ptr, ptr, i32, ptr, ptr, i32, i32, ptr, ptr, ptr, ptr, i32, ptr, i32, i32 }
%struct.ConcatContext = type { ptr, [2 x i32], i32, i32, i64, i32, i32, ptr }
%struct.AVFilterFormatsConfig = type { ptr, ptr, ptr, ptr, ptr }

; Function Attrs: nounwind uwtable
define internal i32 @query_formats(ptr noundef %0, ptr noundef %1, ptr noundef %2) #1 {
  %4 = alloca i32, align 4
  %5 = alloca ptr, align 8
  %6 = alloca ptr, align 8
  %7 = alloca ptr, align 8
  %8 = alloca ptr, align 8
  %9 = alloca i32, align 4
  %10 = alloca i32, align 4
  %11 = alloca i32, align 4
  %12 = alloca i32, align 4
  %13 = alloca i32, align 4
  %14 = alloca i32, align 4
  %15 = alloca ptr, align 8
  %16 = alloca ptr, align 8
  %17 = alloca ptr, align 8
  %18 = alloca i32, align 4
  %19 = alloca i32, align 4
  store ptr %0, ptr %5, align 8, !tbaa !4
  store ptr %1, ptr %6, align 8, !tbaa !44
  store ptr %2, ptr %7, align 8, !tbaa !44
  call void @llvm.lifetime.start.p0(i64 8, ptr %8) #9
  %20 = load ptr, ptr %5, align 8, !tbaa !4
  %21 = getelementptr inbounds nuw %struct.AVFilterContext, ptr %20, i32 0, i32 9
  %22 = load ptr, ptr %21, align 8, !tbaa !9
  store ptr %22, ptr %8, align 8, !tbaa !22
  call void @llvm.lifetime.start.p0(i64 4, ptr %9) #9
  call void @llvm.lifetime.start.p0(i64 4, ptr %10) #9
  call void @llvm.lifetime.start.p0(i64 4, ptr %11) #9
  store i32 0, ptr %11, align 4, !tbaa !24
  call void @llvm.lifetime.start.p0(i64 4, ptr %12) #9
  call void @llvm.lifetime.start.p0(i64 4, ptr %13) #9
  call void @llvm.lifetime.start.p0(i64 4, ptr %14) #9
  call void @llvm.lifetime.start.p0(i64 8, ptr %15) #9
  call void @llvm.lifetime.start.p0(i64 8, ptr %16) #9
  store ptr null, ptr %16, align 8, !tbaa !46
  call void @llvm.lifetime.start.p0(i64 8, ptr %17) #9
  store ptr null, ptr %17, align 8, !tbaa !48
  call void @llvm.lifetime.start.p0(i64 4, ptr %18) #9
  store i32 0, ptr %9, align 4, !tbaa !24
  br label %23

23:                                               ; preds = %143, %3
  %24 = load i32, ptr %9, align 4, !tbaa !24
  %25 = icmp ult i32 %24, 2
  br i1 %25, label %26, label %146

26:                                               ; preds = %23
  %27 = load ptr, ptr %8, align 8, !tbaa !22
  %28 = getelementptr inbounds nuw %struct.ConcatContext, ptr %27, i32 0, i32 1
  %29 = load i32, ptr %9, align 4, !tbaa !24
  %30 = zext i32 %29 to i64
  %31 = getelementptr inbounds nuw [2 x i32], ptr %28, i64 0, i64 %30
  %32 = load i32, ptr %31, align 4, !tbaa !24
  store i32 %32, ptr %10, align 4, !tbaa !24
  store i32 0, ptr %13, align 4, !tbaa !24
  br label %33

33:                                               ; preds = %139, %26
  %34 = load i32, ptr %13, align 4, !tbaa !24
  %35 = load i32, ptr %10, align 4, !tbaa !24
  %36 = icmp ult i32 %34, %35
  br i1 %36, label %37, label %142

37:                                               ; preds = %33
  %38 = load i32, ptr %11, align 4, !tbaa !24
  store i32 %38, ptr %12, align 4, !tbaa !24
  %39 = load i32, ptr %9, align 4, !tbaa !24
  %40 = call ptr @ff_all_formats(i32 noundef %39)
  store ptr %40, ptr %15, align 8, !tbaa !46
  %41 = load ptr, ptr %15, align 8, !tbaa !46
  %42 = load ptr, ptr %7, align 8, !tbaa !44
  %43 = load i32, ptr %12, align 4, !tbaa !24
  %44 = zext i32 %43 to i64
  %45 = getelementptr inbounds nuw ptr, ptr %42, i64 %44
  %46 = load ptr, ptr %45, align 8, !tbaa !50
  %47 = getelementptr inbounds nuw %struct.AVFilterFormatsConfig, ptr %46, i32 0, i32 0
  %48 = call i32 @ff_formats_ref(ptr noundef %41, ptr noundef %47)
  store i32 %48, ptr %18, align 4, !tbaa !24
  %49 = icmp slt i32 %48, 0
  br i1 %49, label %50, label %52

50:                                               ; preds = %37
  %51 = load i32, ptr %18, align 4, !tbaa !24
  store i32 %51, ptr %4, align 4
  store i32 1, ptr %19, align 4
  br label %147

52:                                               ; preds = %37
  %53 = load i32, ptr %9, align 4, !tbaa !24
  %54 = icmp eq i32 %53, 1
  br i1 %54, label %55, label %82

55:                                               ; preds = %52
  %56 = call ptr @ff_all_samplerates()
  store ptr %56, ptr %16, align 8, !tbaa !46
  %57 = load ptr, ptr %16, align 8, !tbaa !46
  %58 = load ptr, ptr %7, align 8, !tbaa !44
  %59 = load i32, ptr %12, align 4, !tbaa !24
  %60 = zext i32 %59 to i64
  %61 = getelementptr inbounds nuw ptr, ptr %58, i64 %60
  %62 = load ptr, ptr %61, align 8, !tbaa !50
  %63 = getelementptr inbounds nuw %struct.AVFilterFormatsConfig, ptr %62, i32 0, i32 1
  %64 = call i32 @ff_formats_ref(ptr noundef %57, ptr noundef %63)
  store i32 %64, ptr %18, align 4, !tbaa !24
  %65 = icmp slt i32 %64, 0
  br i1 %65, label %66, label %68

66:                                               ; preds = %55
  %67 = load i32, ptr %18, align 4, !tbaa !24
  store i32 %67, ptr %4, align 4
  store i32 1, ptr %19, align 4
  br label %147

68:                                               ; preds = %55
  %69 = call ptr @ff_all_channel_layouts()
  store ptr %69, ptr %17, align 8, !tbaa !48
  %70 = load ptr, ptr %17, align 8, !tbaa !48
  %71 = load ptr, ptr %7, align 8, !tbaa !44
  %72 = load i32, ptr %12, align 4, !tbaa !24
  %73 = zext i32 %72 to i64
  %74 = getelementptr inbounds nuw ptr, ptr %71, i64 %73
  %75 = load ptr, ptr %74, align 8, !tbaa !50
  %76 = getelementptr inbounds nuw %struct.AVFilterFormatsConfig, ptr %75, i32 0, i32 2
  %77 = call i32 @ff_channel_layouts_ref(ptr noundef %70, ptr noundef %76)
  store i32 %77, ptr %18, align 4, !tbaa !24
  %78 = icmp slt i32 %77, 0
  br i1 %78, label %79, label %81

79:                                               ; preds = %68
  %80 = load i32, ptr %18, align 4, !tbaa !24
  store i32 %80, ptr %4, align 4
  store i32 1, ptr %19, align 4
  br label %147

81:                                               ; preds = %68
  br label %82

82:                                               ; preds = %81, %52
  store i32 0, ptr %14, align 4, !tbaa !24
  br label %83

83:                                               ; preds = %133, %82
  %84 = load i32, ptr %14, align 4, !tbaa !24
  %85 = load ptr, ptr %8, align 8, !tbaa !22
  %86 = getelementptr inbounds nuw %struct.ConcatContext, ptr %85, i32 0, i32 2
  %87 = load i32, ptr %86, align 8, !tbaa !25
  %88 = icmp ult i32 %84, %87
  br i1 %88, label %89, label %136

89:                                               ; preds = %83
  %90 = load ptr, ptr %15, align 8, !tbaa !46
  %91 = load ptr, ptr %6, align 8, !tbaa !44
  %92 = load i32, ptr %12, align 4, !tbaa !24
  %93 = zext i32 %92 to i64
  %94 = getelementptr inbounds nuw ptr, ptr %91, i64 %93
  %95 = load ptr, ptr %94, align 8, !tbaa !50
  %96 = getelementptr inbounds nuw %struct.AVFilterFormatsConfig, ptr %95, i32 0, i32 0
  %97 = call i32 @ff_formats_ref(ptr noundef %90, ptr noundef %96)
  store i32 %97, ptr %18, align 4, !tbaa !24
  %98 = icmp slt i32 %97, 0
  br i1 %98, label %99, label %101

99:                                               ; preds = %89
  %100 = load i32, ptr %18, align 4, !tbaa !24
  store i32 %100, ptr %4, align 4
  store i32 1, ptr %19, align 4
  br label %147

101:                                              ; preds = %89
  %102 = load i32, ptr %9, align 4, !tbaa !24
  %103 = icmp eq i32 %102, 1
  br i1 %103, label %104, label %127

104:                                              ; preds = %101
  %105 = load ptr, ptr %16, align 8, !tbaa !46
  %106 = load ptr, ptr %6, align 8, !tbaa !44
  %107 = load i32, ptr %12, align 4, !tbaa !24
  %108 = zext i32 %107 to i64
  %109 = getelementptr inbounds nuw ptr, ptr %106, i64 %108
  %110 = load ptr, ptr %109, align 8, !tbaa !50
  %111 = getelementptr inbounds nuw %struct.AVFilterFormatsConfig, ptr %110, i32 0, i32 1
  %112 = call i32 @ff_formats_ref(ptr noundef %105, ptr noundef %111)
  store i32 %112, ptr %18, align 4, !tbaa !24
  %113 = icmp slt i32 %112, 0
  br i1 %113, label %124, label %114

114:                                              ; preds = %104
  %115 = load ptr, ptr %17, align 8, !tbaa !48
  %116 = load ptr, ptr %6, align 8, !tbaa !44
  %117 = load i32, ptr %12, align 4, !tbaa !24
  %118 = zext i32 %117 to i64
  %119 = getelementptr inbounds nuw ptr, ptr %116, i64 %118
  %120 = load ptr, ptr %119, align 8, !tbaa !50
  %121 = getelementptr inbounds nuw %struct.AVFilterFormatsConfig, ptr %120, i32 0, i32 2
  %122 = call i32 @ff_channel_layouts_ref(ptr noundef %115, ptr noundef %121)
  store i32 %122, ptr %18, align 4, !tbaa !24
  %123 = icmp slt i32 %122, 0
  br i1 %123, label %124, label %126

124:                                              ; preds = %114, %104
  %125 = load i32, ptr %18, align 4, !tbaa !24
  store i32 %125, ptr %4, align 4
  store i32 1, ptr %19, align 4
  br label %147

126:                                              ; preds = %114
  br label %127

127:                                              ; preds = %126, %101
  %128 = load ptr, ptr %5, align 8, !tbaa !4
  %129 = getelementptr inbounds nuw %struct.AVFilterContext, ptr %128, i32 0, i32 8
  %130 = load i32, ptr %129, align 8, !tbaa !42
  %131 = load i32, ptr %12, align 4, !tbaa !24
  %132 = add i32 %131, %130
  store i32 %132, ptr %12, align 4, !tbaa !24
  br label %133

133:                                              ; preds = %127
  %134 = load i32, ptr %14, align 4, !tbaa !24
  %135 = add i32 %134, 1
  store i32 %135, ptr %14, align 4, !tbaa !24
  br label %83, !llvm.loop !52

136:                                              ; preds = %83
  %137 = load i32, ptr %11, align 4, !tbaa !24
  %138 = add i32 %137, 1
  store i32 %138, ptr %11, align 4, !tbaa !24
  br label %139

139:                                              ; preds = %136
  %140 = load i32, ptr %13, align 4, !tbaa !24
  %141 = add i32 %140, 1
  store i32 %141, ptr %13, align 4, !tbaa !24
  br label %33, !llvm.loop !53

142:                                              ; preds = %33
  br label %143

143:                                              ; preds = %142
  %144 = load i32, ptr %9, align 4, !tbaa !24
  %145 = add i32 %144, 1
  store i32 %145, ptr %9, align 4, !tbaa !24
  br label %23, !llvm.loop !54

146:                                              ; preds = %23
  store i32 0, ptr %4, align 4
  store i32 1, ptr %19, align 4
  br label %147

147:                                              ; preds = %146, %124, %99, %79, %66, %50
  call void @llvm.lifetime.end.p0(i64 4, ptr %18) #9
  call void @llvm.lifetime.end.p0(i64 8, ptr %17) #9
  call void @llvm.lifetime.end.p0(i64 8, ptr %16) #9
  call void @llvm.lifetime.end.p0(i64 8, ptr %15) #9
  call void @llvm.lifetime.end.p0(i64 4, ptr %14) #9
  call void @llvm.lifetime.end.p0(i64 4, ptr %13) #9
  call void @llvm.lifetime.end.p0(i64 4, ptr %12) #9
  call void @llvm.lifetime.end.p0(i64 4, ptr %11) #9
  call void @llvm.lifetime.end.p0(i64 4, ptr %10) #9
  call void @llvm.lifetime.end.p0(i64 4, ptr %9) #9
  call void @llvm.lifetime.end.p0(i64 8, ptr %8) #9
  %148 = load i32, ptr %4, align 4
  ret i32 %148
}