; Function Attrs: nounwind uwtable
define internal range(i32 -2147483648, 1) i32 @query_formats(ptr noundef readonly captures(none) %0, ptr noundef readonly captures(none) %1, ptr noundef readonly captures(none) %2) #1 {
  %4 = getelementptr inbounds nuw i8, ptr %0, i64 72
  %5 = load ptr, ptr %4, align 8, !tbaa !4
  %6 = getelementptr inbounds nuw i8, ptr %5, i64 8
  %7 = getelementptr inbounds nuw i8, ptr %5, i64 16
  %8 = getelementptr inbounds nuw i8, ptr %0, i64 64
  br label %9

9:                                                ; preds = %3, %._crit_edge77
  %.not90 = phi i1 [ true, %3 ], [ false, %._crit_edge77 ]
  %indvars.iv = phi i64 [ 0, %3 ], [ 1, %._crit_edge77 ]
  %.04987 = phi i32 [ 0, %3 ], [ %.150.lcssa, %._crit_edge77 ]
  %10 = getelementptr inbounds nuw [2 x i32], ptr %6, i64 0, i64 %indvars.iv
  %11 = load i32, ptr %10, align 4, !tbaa !24
  %.not = icmp eq i32 %11, 0
  br i1 %.not, label %._crit_edge77, label %.lr.ph76

.lr.ph76:                                         ; preds = %9
  %12 = add i32 %.04987, %11
  br i1 %.not90, label %.lr.ph76.split, label %.lr.ph76.split.us.preheader

.lr.ph76.split.us.preheader:                      ; preds = %.lr.ph76
  %13 = trunc nuw nsw i64 %indvars.iv to i32
  br label %.lr.ph76.split.us

.lr.ph76.split.us:                                ; preds = %.lr.ph76.split.us.preheader, %._crit_edge.split.us.us
  %.15070.us = phi i32 [ %34, %._crit_edge.split.us.us ], [ %.04987, %.lr.ph76.split.us.preheader ]
  %14 = tail call ptr @ff_all_formats(i32 noundef %13) #8
  %15 = zext i32 %.15070.us to i64
  %16 = getelementptr inbounds nuw ptr, ptr %2, i64 %15
  %17 = load ptr, ptr %16, align 8, !tbaa !40
  %18 = tail call i32 @ff_formats_ref(ptr noundef %14, ptr noundef %17) #8
  %19 = icmp slt i32 %18, 0
  br i1 %19, label %.loopexit, label %20

20:                                               ; preds = %.lr.ph76.split.us
  %21 = tail call ptr @ff_all_samplerates() #8
  %22 = load ptr, ptr %16, align 8, !tbaa !40
  %23 = getelementptr inbounds nuw i8, ptr %22, i64 8
  %24 = tail call i32 @ff_formats_ref(ptr noundef %21, ptr noundef nonnull %23) #8
  %25 = icmp slt i32 %24, 0
  br i1 %25, label %.loopexit, label %26

26:                                               ; preds = %20
  %27 = tail call ptr @ff_all_channel_layouts() #8
  %28 = load ptr, ptr %16, align 8, !tbaa !40
  %29 = getelementptr inbounds nuw i8, ptr %28, i64 16
  %30 = tail call i32 @ff_channel_layouts_ref(ptr noundef %27, ptr noundef nonnull %29) #8
  %31 = icmp slt i32 %30, 0
  br i1 %31, label %.loopexit, label %32

32:                                               ; preds = %26
  %33 = load i32, ptr %7, align 8, !tbaa !20
  %.not92 = icmp eq i32 %33, 0
  br i1 %.not92, label %._crit_edge.split.us.us, label %.lr.ph.us

._crit_edge.split.us.us:                          ; preds = %50, %32
  %34 = add i32 %.15070.us, 1
  %exitcond.not = icmp eq i32 %34, %12
  br i1 %exitcond.not, label %._crit_edge77, label %.lr.ph76.split.us, !llvm.loop !42

.lr.ph.us:                                        ; preds = %32, %50
  %.04668.us.us = phi i32 [ %53, %50 ], [ 0, %32 ]
  %.04867.us.us = phi i32 [ %52, %50 ], [ %.15070.us, %32 ]
  %35 = zext i32 %.04867.us.us to i64
  %36 = getelementptr inbounds nuw ptr, ptr %1, i64 %35
  %37 = load ptr, ptr %36, align 8, !tbaa !40
  %38 = tail call i32 @ff_formats_ref(ptr noundef %14, ptr noundef %37) #8
  %39 = icmp slt i32 %38, 0
  br i1 %39, label %.loopexit, label %40

40:                                               ; preds = %.lr.ph.us
  %41 = load ptr, ptr %36, align 8, !tbaa !40
  %42 = getelementptr inbounds nuw i8, ptr %41, i64 8
  %43 = tail call i32 @ff_formats_ref(ptr noundef %21, ptr noundef nonnull %42) #8
  %44 = icmp slt i32 %43, 0
  br i1 %44, label %.loopexit, label %45

45:                                               ; preds = %40
  %46 = load ptr, ptr %36, align 8, !tbaa !40
  %47 = getelementptr inbounds nuw i8, ptr %46, i64 16
  %48 = tail call i32 @ff_channel_layouts_ref(ptr noundef %27, ptr noundef nonnull %47) #8
  %49 = icmp slt i32 %48, 0
  br i1 %49, label %.loopexit, label %50

50:                                               ; preds = %45
  %51 = load i32, ptr %8, align 8, !tbaa !38
  %52 = add i32 %51, %.04867.us.us
  %53 = add nuw i32 %.04668.us.us, 1
  %54 = load i32, ptr %7, align 8, !tbaa !20
  %55 = icmp ult i32 %53, %54
  br i1 %55, label %.lr.ph.us, label %._crit_edge.split.us.us, !llvm.loop !43

.lr.ph76.split:                                   ; preds = %.lr.ph76, %._crit_edge.split
  %.15070 = phi i32 [ %75, %._crit_edge.split ], [ %.04987, %.lr.ph76 ]
  %56 = tail call ptr @ff_all_formats(i32 noundef 0) #8
  %57 = zext i32 %.15070 to i64
  %58 = getelementptr inbounds nuw ptr, ptr %2, i64 %57
  %59 = load ptr, ptr %58, align 8, !tbaa !40
  %60 = tail call i32 @ff_formats_ref(ptr noundef %56, ptr noundef %59) #8
  %61 = icmp slt i32 %60, 0
  br i1 %61, label %.loopexit, label %62

62:                                               ; preds = %.lr.ph76.split
  %63 = load i32, ptr %7, align 8, !tbaa !20
  %.not91 = icmp eq i32 %63, 0
  br i1 %.not91, label %._crit_edge.split, label %.lr.ph

.lr.ph:                                           ; preds = %62, %69
  %.04668 = phi i32 [ %72, %69 ], [ 0, %62 ]
  %.04867 = phi i32 [ %71, %69 ], [ %.15070, %62 ]
  %64 = zext i32 %.04867 to i64
  %65 = getelementptr inbounds nuw ptr, ptr %1, i64 %64
  %66 = load ptr, ptr %65, align 8, !tbaa !40
  %67 = tail call i32 @ff_formats_ref(ptr noundef %56, ptr noundef %66) #8
  %68 = icmp slt i32 %67, 0
  br i1 %68, label %.loopexit, label %69

69:                                               ; preds = %.lr.ph
  %70 = load i32, ptr %8, align 8, !tbaa !38
  %71 = add i32 %70, %.04867
  %72 = add nuw i32 %.04668, 1
  %73 = load i32, ptr %7, align 8, !tbaa !20
  %74 = icmp ult i32 %72, %73
  br i1 %74, label %.lr.ph, label %._crit_edge.split, !llvm.loop !43

._crit_edge.split:                                ; preds = %69, %62
  %75 = add i32 %.15070, 1
  %exitcond105.not = icmp eq i32 %75, %12
  br i1 %exitcond105.not, label %._crit_edge77, label %.lr.ph76.split, !llvm.loop !42

._crit_edge77:                                    ; preds = %._crit_edge.split.us.us, %._crit_edge.split, %9
  %.150.lcssa = phi i32 [ %.04987, %9 ], [ %12, %._crit_edge.split ], [ %12, %._crit_edge.split.us.us ]
  br i1 %.not90, label %9, label %.loopexit, !llvm.loop !44

.loopexit:                                        ; preds = %._crit_edge77, %26, %20, %.lr.ph76.split.us, %.lr.ph76.split, %.lr.ph.us, %40, %45, %.lr.ph
  %.045 = phi i32 [ %67, %.lr.ph ], [ %48, %45 ], [ %43, %40 ], [ %38, %.lr.ph.us ], [ %60, %.lr.ph76.split ], [ %30, %26 ], [ %24, %20 ], [ %18, %.lr.ph76.split.us ], [ 0, %._crit_edge77 ]
  ret i32 %.045
}